target datalayout = "e-m:e-p270:32:32-p271:32:32-p272:64:64-i64:64-i128:128-f80:128-n8:16:32:64-S128"
target triple = "x86_64-pc-linux-gnu"

%struct.AVChannelLayout = type { i32, i32, %union.anon, ptr }
%union.anon = type { i64 }

; Function Attrs: nounwind uwtable
define i64 @av_channel_layout_subset(ptr noundef %0, i64 noundef %1) #0 {
  %3 = alloca i64, align 8
  %4 = alloca ptr, align 8
  %5 = alloca i64, align 8
  %6 = alloca i64, align 8
  %7 = alloca i32, align 4
  %8 = alloca i32, align 4
  store ptr %0, ptr %4, align 8, !tbaa !23
  store i64 %1, ptr %5, align 8, !tbaa !15
  call void @llvm.lifetime.start.p0(i64 8, ptr %6) #11
  store i64 0, ptr %6, align 8, !tbaa !15
  call void @llvm.lifetime.start.p0(i64 4, ptr %7) #11
  %9 = load ptr, ptr %4, align 8, !tbaa !23
  %10 = getelementptr inbounds nuw %struct.AVChannelLayout, ptr %9, i32 0, i32 0
  %11 = load i32, ptr %10, align 8, !tbaa !30
  switch i32 %11, label %45 [
    i32 1, label %12
    i32 3, label %12
    i32 2, label %18
  ]

12:                                               ; preds = %2, %2
  %13 = load ptr, ptr %4, align 8, !tbaa !23
  %14 = getelementptr inbounds nuw %struct.AVChannelLayout, ptr %13, i32 0, i32 2
  %15 = load i64, ptr %14, align 8, !tbaa !22
  %16 = load i64, ptr %5, align 8, !tbaa !15
  %17 = and i64 %15, %16
  store i64 %17, ptr %3, align 8
  store i32 1, ptr %8, align 4
  br label %47

18:                                               ; preds = %2
  store i32 0, ptr %7, align 4, !tbaa !9
  br label %19

19:                                               ; preds = %41, %18
  %20 = load i32, ptr %7, align 4, !tbaa !9
  %21 = icmp slt i32 %20, 64
  br i1 %21, label %22, label %44

22:                                               ; preds = %19
  %23 = load i64, ptr %5, align 8, !tbaa !15
  %24 = load i32, ptr %7, align 4, !tbaa !9
  %25 = zext i32 %24 to i64
  %26 = shl i64 1, %25
  %27 = and i64 %23, %26
  %28 = icmp ne i64 %27, 0
  br i1 %28, label %29, label %40

29:                                               ; preds = %22
  %30 = load ptr, ptr %4, align 8, !tbaa !23
  %31 = load i32, ptr %7, align 4, !tbaa !9
  %32 = call i32 @av_channel_layout_index_from_channel(ptr noundef %30, i32 noundef %31)
  %33 = icmp sge i32 %32, 0
  br i1 %33, label %34, label %40

34:                                               ; preds = %29
  %35 = load i32, ptr %7, align 4, !tbaa !9
  %36 = zext i32 %35 to i64
  %37 = shl i64 1, %36
  %38 = load i64, ptr %6, align 8, !tbaa !15
  %39 = or i64 %38, %37
  store i64 %39, ptr %6, align 8, !tbaa !15
  br label %40

40:                                               ; preds = %34, %29, %22
  br label %41

41:                                               ; preds = %40
  %42 = load i32, ptr %7, align 4, !tbaa !9
  %43 = add nsw i32 %42, 1
  store i32 %43, ptr %7, align 4, !tbaa !9
  br label %19, !llvm.loop !56

44:                                               ; preds = %19
  br label %45

45:                                               ; preds = %2, %44
  %46 = load i64, ptr %6, align 8, !tbaa !15
  store i64 %46, ptr %3, align 8
  store i32 1, ptr %8, align 4
  br label %47

47:                                               ; preds = %45, %12
  call void @llvm.lifetime.end.p0(i64 4, ptr %7) #11
  call void @llvm.lifetime.end.p0(i64 8, ptr %6) #11
  %48 = load i64, ptr %3, align 8
  ret i64 %48
}