; Function Attrs: nofree norecurse nosync nounwind memory(read, inaccessiblemem: none) uwtable
define i64 @av_channel_layout_subset(ptr noundef readonly captures(none) %0, i64 noundef %1) local_unnamed_addr #9 {
  %3 = load i32, ptr %0, align 8, !tbaa !18
  switch i32 %3, label %.loopexit [
    i32 1, label %4
    i32 3, label %4
    i32 2, label %.preheader
  ]

4:                                                ; preds = %2, %2
  %5 = getelementptr inbounds nuw i8, ptr %0, i64 8
  %6 = load i64, ptr %5, align 8, !tbaa !17
  %7 = and i64 %6, %1
  br label %.loopexit

.preheader:                                       ; preds = %2, %15
  %indvars.iv = phi i64 [ %indvars.iv.next, %15 ], [ 0, %2 ]
  %.114 = phi i64 [ %.2, %15 ], [ 0, %2 ]
  %8 = shl nuw i64 1, %indvars.iv
  %9 = and i64 %8, %1
  %.not = icmp eq i64 %9, 0
  br i1 %.not, label %15, label %10

10:                                               ; preds = %.preheader
  %11 = trunc nuw nsw i64 %indvars.iv to i32
  %12 = tail call i32 @av_channel_layout_index_from_channel(ptr noundef nonnull %0, i32 noundef %11)
  %13 = icmp slt i32 %12, 0
  %14 = select i1 %13, i64 0, i64 %8
  %spec.select = or i64 %14, %.114
  br label %15

15:                                               ; preds = %10, %.preheader
  %.2 = phi i64 [ %.114, %.preheader ], [ %spec.select, %10 ]
  %indvars.iv.next = add nuw nsw i64 %indvars.iv, 1
  %exitcond.not = icmp eq i64 %indvars.iv.next, 64
  br i1 %exitcond.not, label %.loopexit, label %.preheader, !llvm.loop !47

.loopexit:                                        ; preds = %15, %2, %4
  %.013 = phi i64 [ %7, %4 ], [ 0, %2 ], [ %.2, %15 ]
  ret i64 %.013
}